target datalayout = "e-m:e-p270:32:32-p271:32:32-p272:64:64-i64:64-i128:128-f80:128-n8:16:32:64-S128"
target triple = "x86_64-pc-linux-gnu"

%struct.Dch_Man_t_ = type { ptr, ptr, ptr, ptr, ptr, ptr, i32, ptr, ptr, i32, i32, ptr, ptr, ptr, i32, i32, i32, i32, i32, i32, i32, i32, i32, i32, i32, i64, i64, i64, i64, i64, i64, i64, i64, i64 }
%struct.Aig_Obj_t_ = type { %union.anon, ptr, ptr, i64, i32, i32, %union.anon.0 }
%union.anon = type { ptr }
%union.anon.0 = type { ptr }
%struct.Aig_Man_t_ = type { ptr, ptr, ptr, ptr, ptr, ptr, ptr, %struct.Aig_Obj_t_, i32, i32, i32, i32, i32, i32, [7 x i32], i32, ptr, i32, ptr, i32, ptr, i32, i32, i32, ptr, i32, i32, i32, i32, i32, ptr, ptr, i32, ptr, ptr, i32, ptr, ptr, i32, i32, i32, ptr, ptr, ptr, ptr, ptr, ptr, ptr, ptr, ptr, ptr, ptr, ptr, ptr, ptr, i32, ptr, ptr, ptr, ptr, i32, i64, i64, i64, ptr, ptr }
%struct.Vec_Ptr_t_ = type { i32, i32, ptr }
%struct.timespec = type { i64, i64 }

; Function Attrs: inlinehint nounwind uwtable
define internal i32 @Aig_ObjIsConst1(ptr noundef %0) #2 {
  %2 = alloca ptr, align 8
  store ptr %0, ptr %2, align 8, !tbaa !8
  %3 = load ptr, ptr %2, align 8, !tbaa !8
  %4 = getelementptr inbounds nuw %struct.Aig_Obj_t_, ptr %3, i32 0, i32 3
  %5 = load i64, ptr %4, align 8
  %6 = and i64 %5, 7
  %7 = trunc i64 %6 to i32
  %8 = icmp eq i32 %7, 1
  %9 = zext i1 %8 to i32
  ret i32 %9
}

; Function Attrs: inlinehint nounwind uwtable
define internal ptr @Vec_PtrEntry(ptr noundef %0, i32 noundef %1) #2 {
  %3 = alloca ptr, align 8
  %4 = alloca i32, align 4
  store ptr %0, ptr %3, align 8, !tbaa !41
  store i32 %1, ptr %4, align 4, !tbaa !10
  %5 = load ptr, ptr %3, align 8, !tbaa !41
  %6 = getelementptr inbounds nuw %struct.Vec_Ptr_t_, ptr %5, i32 0, i32 2
  %7 = load ptr, ptr %6, align 8, !tbaa !46
  %8 = load i32, ptr %4, align 4, !tbaa !10
  %9 = sext i32 %8 to i64
  %10 = getelementptr inbounds ptr, ptr %7, i64 %9
  %11 = load ptr, ptr %10, align 8, !tbaa !42
  ret ptr %11
}

; Function Attrs: inlinehint nounwind uwtable
define internal i32 @Vec_PtrSize(ptr noundef %0) #2 {
  %2 = alloca ptr, align 8
  store ptr %0, ptr %2, align 8, !tbaa !41
  %3 = load ptr, ptr %2, align 8, !tbaa !41
  %4 = getelementptr inbounds nuw %struct.Vec_Ptr_t_, ptr %3, i32 0, i32 1
  %5 = load i32, ptr %4, align 4, !tbaa !43
  ret i32 %5
}

; Function Attrs: inlinehint nounwind uwtable
define internal i32 @Abc_MaxInt(i32 noundef %0, i32 noundef %1) #2 {
  %3 = alloca i32, align 4
  %4 = alloca i32, align 4
  store i32 %0, ptr %3, align 4, !tbaa !10
  store i32 %1, ptr %4, align 4, !tbaa !10
  %5 = load i32, ptr %3, align 4, !tbaa !10
  %6 = load i32, ptr %4, align 4, !tbaa !10
  %7 = icmp sgt i32 %5, %6
  br i1 %7, label %8, label %10

8:                                                ; preds = %2
  %9 = load i32, ptr %3, align 4, !tbaa !10
  br label %12

10:                                               ; preds = %2
  %11 = load i32, ptr %4, align 4, !tbaa !10
  br label %12

12:                                               ; preds = %10, %8
  %13 = phi i32 [ %9, %8 ], [ %11, %10 ]
  ret i32 %13
}

; Function Attrs: inlinehint nounwind uwtable
define internal void @Aig_ObjSetTravIdCurrent(ptr noundef %0, ptr noundef %1) #2 {
  %3 = alloca ptr, align 8
  %4 = alloca ptr, align 8
  store ptr %0, ptr %3, align 8, !tbaa !28
  store ptr %1, ptr %4, align 8, !tbaa !8
  %5 = load ptr, ptr %3, align 8, !tbaa !28
  %6 = getelementptr inbounds nuw %struct.Aig_Man_t_, ptr %5, i32 0, i32 38
  %7 = load i32, ptr %6, align 8, !tbaa !30
  %8 = load ptr, ptr %4, align 8, !tbaa !8
  %9 = getelementptr inbounds nuw %struct.Aig_Obj_t_, ptr %8, i32 0, i32 4
  store i32 %7, ptr %9, align 8, !tbaa !29
  ret void
}

; Function Attrs: inlinehint nounwind uwtable
define internal ptr @Aig_ManConst1(ptr noundef %0) #2 {
  %2 = alloca ptr, align 8
  store ptr %0, ptr %2, align 8, !tbaa !28
  %3 = load ptr, ptr %2, align 8, !tbaa !28
  %4 = getelementptr inbounds nuw %struct.Aig_Man_t_, ptr %3, i32 0, i32 6
  %5 = load ptr, ptr %4, align 8, !tbaa !40
  ret ptr %5
}

; Function Attrs: inlinehint nounwind uwtable
define internal i64 @Abc_Clock() #2 {
  %1 = alloca i64, align 8
  %2 = alloca %struct.timespec, align 8
  %3 = alloca i32, align 4
  %4 = alloca i64, align 8
  call void @llvm.lifetime.start.p0(i64 16, ptr %2) #7
  %5 = call i32 @clock_gettime(i32 noundef 1, ptr noundef %2) #7
  %6 = icmp slt i32 %5, 0
  br i1 %6, label %7, label %8

7:                                                ; preds = %0
  store i64 -1, ptr %1, align 8
  store i32 1, ptr %3, align 4
  br label %19

8:                                                ; preds = %0
  call void @llvm.lifetime.start.p0(i64 8, ptr %4) #7
  %9 = getelementptr inbounds nuw %struct.timespec, ptr %2, i32 0, i32 0
  %10 = load i64, ptr %9, align 8, !tbaa !76
  %11 = mul nsw i64 %10, 1000000
  store i64 %11, ptr %4, align 8, !tbaa !67
  %12 = getelementptr inbounds nuw %struct.timespec, ptr %2, i32 0, i32 1
  %13 = load i64, ptr %12, align 8, !tbaa !78
  %14 = mul nsw i64 %13, 1000000
  %15 = sdiv i64 %14, 1000000000
  %16 = load i64, ptr %4, align 8, !tbaa !67
  %17 = add nsw i64 %16, %15
  store i64 %17, ptr %4, align 8, !tbaa !67
  %18 = load i64, ptr %4, align 8, !tbaa !67
  store i64 %18, ptr %1, align 8
  store i32 1, ptr %3, align 4
  call void @llvm.lifetime.end.p0(i64 8, ptr %4) #7
  br label %19

19:                                               ; preds = %8, %7
  call void @llvm.lifetime.end.p0(i64 16, ptr %2) #7
  %20 = load i64, ptr %1, align 8
  ret i64 %20
}

; Function Attrs: nounwind uwtable
define void @Dch_ManResimulateCex(ptr noundef %0, ptr noundef %1, ptr noundef %2) #0 {
  %4 = alloca ptr, align 8
  %5 = alloca ptr, align 8
  %6 = alloca ptr, align 8
  %7 = alloca ptr, align 8
  %8 = alloca ptr, align 8
  %9 = alloca i32, align 4
  %10 = alloca i32, align 4
  %11 = alloca i32, align 4
  %12 = alloca i32, align 4
  %13 = alloca i32, align 4
  %14 = alloca i64, align 8
  store ptr %0, ptr %4, align 8, !tbaa !3
  store ptr %1, ptr %5, align 8, !tbaa !8
  store ptr %2, ptr %6, align 8, !tbaa !8
  call void @llvm.lifetime.start.p0(i64 8, ptr %7) #7
  call void @llvm.lifetime.start.p0(i64 8, ptr %8) #7
  call void @llvm.lifetime.start.p0(i64 4, ptr %9) #7
  call void @llvm.lifetime.start.p0(i64 4, ptr %10) #7
  call void @llvm.lifetime.start.p0(i64 4, ptr %11) #7
  call void @llvm.lifetime.start.p0(i64 4, ptr %12) #7
  call void @llvm.lifetime.start.p0(i64 4, ptr %13) #7
  call void @llvm.lifetime.start.p0(i64 8, ptr %14) #7
  %15 = call i64 @Abc_Clock()
  store i64 %15, ptr %14, align 8, !tbaa !67
  %16 = load ptr, ptr %4, align 8, !tbaa !3
  %17 = load ptr, ptr %5, align 8, !tbaa !8
  %18 = load ptr, ptr %6, align 8, !tbaa !8
  call void @Dch_ManCollectTfoCands(ptr noundef %16, ptr noundef %17, ptr noundef %18)
  %19 = load ptr, ptr %4, align 8, !tbaa !3
  %20 = getelementptr inbounds nuw %struct.Dch_Man_t_, ptr %19, i32 0, i32 14
  store i32 0, ptr %20, align 8, !tbaa !49
  %21 = load ptr, ptr %4, align 8, !tbaa !3
  %22 = getelementptr inbounds nuw %struct.Dch_Man_t_, ptr %21, i32 0, i32 1
  %23 = load ptr, ptr %22, align 8, !tbaa !12
  call void @Aig_ManIncrementTravId(ptr noundef %23)
  %24 = load ptr, ptr %4, align 8, !tbaa !3
  %25 = getelementptr inbounds nuw %struct.Dch_Man_t_, ptr %24, i32 0, i32 1
  %26 = load ptr, ptr %25, align 8, !tbaa !12
  %27 = load ptr, ptr %4, align 8, !tbaa !3
  %28 = getelementptr inbounds nuw %struct.Dch_Man_t_, ptr %27, i32 0, i32 1
  %29 = load ptr, ptr %28, align 8, !tbaa !12
  %30 = call ptr @Aig_ManConst1(ptr noundef %29)
  call void @Aig_ObjSetTravIdCurrent(ptr noundef %26, ptr noundef %30)
  %31 = load ptr, ptr %4, align 8, !tbaa !3
  %32 = load ptr, ptr %5, align 8, !tbaa !8
  call void @Dch_ManResimulateSolved_rec(ptr noundef %31, ptr noundef %32)
  %33 = load ptr, ptr %4, align 8, !tbaa !3
  %34 = load ptr, ptr %6, align 8, !tbaa !8
  call void @Dch_ManResimulateSolved_rec(ptr noundef %33, ptr noundef %34)
  %35 = load ptr, ptr %4, align 8, !tbaa !3
  %36 = getelementptr inbounds nuw %struct.Dch_Man_t_, ptr %35, i32 0, i32 15
  %37 = load i32, ptr %36, align 4, !tbaa !68
  %38 = load ptr, ptr %4, align 8, !tbaa !3
  %39 = getelementptr inbounds nuw %struct.Dch_Man_t_, ptr %38, i32 0, i32 14
  %40 = load i32, ptr %39, align 8, !tbaa !49
  %41 = call i32 @Abc_MaxInt(i32 noundef %37, i32 noundef %40)
  %42 = load ptr, ptr %4, align 8, !tbaa !3
  %43 = getelementptr inbounds nuw %struct.Dch_Man_t_, ptr %42, i32 0, i32 15
  store i32 %41, ptr %43, align 4, !tbaa !68
  store i32 0, ptr %9, align 4, !tbaa !10
  br label %44

44:                                               ; preds = %62, %3
  %45 = load i32, ptr %9, align 4, !tbaa !10
  %46 = load ptr, ptr %4, align 8, !tbaa !3
  %47 = getelementptr inbounds nuw %struct.Dch_Man_t_, ptr %46, i32 0, i32 12
  %48 = load ptr, ptr %47, align 8, !tbaa !26
  %49 = call i32 @Vec_PtrSize(ptr noundef %48)
  %50 = icmp slt i32 %45, %49
  br i1 %50, label %51, label %57

51:                                               ; preds = %44
  %52 = load ptr, ptr %4, align 8, !tbaa !3
  %53 = getelementptr inbounds nuw %struct.Dch_Man_t_, ptr %52, i32 0, i32 12
  %54 = load ptr, ptr %53, align 8, !tbaa !26
  %55 = load i32, ptr %9, align 4, !tbaa !10
  %56 = call ptr @Vec_PtrEntry(ptr noundef %54, i32 noundef %55)
  store ptr %56, ptr %7, align 8, !tbaa !8
  br label %57

57:                                               ; preds = %51, %44
  %58 = phi i1 [ false, %44 ], [ true, %51 ]
  br i1 %58, label %59, label %65

59:                                               ; preds = %57
  %60 = load ptr, ptr %4, align 8, !tbaa !3
  %61 = load ptr, ptr %7, align 8, !tbaa !8
  call void @Dch_ManResimulateOther_rec(ptr noundef %60, ptr noundef %61)
  br label %62

62:                                               ; preds = %59
  %63 = load i32, ptr %9, align 4, !tbaa !10
  %64 = add nsw i32 %63, 1
  store i32 %64, ptr %9, align 4, !tbaa !10
  br label %44, !llvm.loop !69

65:                                               ; preds = %57
  %66 = load ptr, ptr %4, align 8, !tbaa !3
  %67 = getelementptr inbounds nuw %struct.Dch_Man_t_, ptr %66, i32 0, i32 3
  %68 = load ptr, ptr %67, align 8, !tbaa !70
  %69 = load ptr, ptr %4, align 8, !tbaa !3
  %70 = getelementptr inbounds nuw %struct.Dch_Man_t_, ptr %69, i32 0, i32 12
  %71 = load ptr, ptr %70, align 8, !tbaa !26
  %72 = call i32 @Dch_ClassesRefineConst1Group(ptr noundef %68, ptr noundef %71, i32 noundef 0)
  store i32 %72, ptr %12, align 4, !tbaa !10
  store i32 0, ptr %13, align 4, !tbaa !10
  store i32 0, ptr %9, align 4, !tbaa !10
  br label %73

73:                                               ; preds = %116, %65
  %74 = load i32, ptr %9, align 4, !tbaa !10
  %75 = load ptr, ptr %4, align 8, !tbaa !3
  %76 = getelementptr inbounds nuw %struct.Dch_Man_t_, ptr %75, i32 0, i32 13
  %77 = load ptr, ptr %76, align 8, !tbaa !27
  %78 = call i32 @Vec_PtrSize(ptr noundef %77)
  %79 = icmp slt i32 %74, %78
  br i1 %79, label %80, label %86

80:                                               ; preds = %73
  %81 = load ptr, ptr %4, align 8, !tbaa !3
  %82 = getelementptr inbounds nuw %struct.Dch_Man_t_, ptr %81, i32 0, i32 13
  %83 = load ptr, ptr %82, align 8, !tbaa !27
  %84 = load i32, ptr %9, align 4, !tbaa !10
  %85 = call ptr @Vec_PtrEntry(ptr noundef %83, i32 noundef %84)
  store ptr %85, ptr %7, align 8, !tbaa !8
  br label %86

86:                                               ; preds = %80, %73
  %87 = phi i1 [ false, %73 ], [ true, %80 ]
  br i1 %87, label %88, label %119

88:                                               ; preds = %86
  %89 = load ptr, ptr %4, align 8, !tbaa !3
  %90 = getelementptr inbounds nuw %struct.Dch_Man_t_, ptr %89, i32 0, i32 3
  %91 = load ptr, ptr %90, align 8, !tbaa !70
  %92 = load ptr, ptr %7, align 8, !tbaa !8
  %93 = call ptr @Dch_ClassesReadClass(ptr noundef %91, ptr noundef %92, ptr noundef %11)
  store ptr %93, ptr %8, align 8, !tbaa !71
  store i32 0, ptr %10, align 4, !tbaa !10
  br label %94

94:                                               ; preds = %105, %88
  %95 = load i32, ptr %10, align 4, !tbaa !10
  %96 = load i32, ptr %11, align 4, !tbaa !10
  %97 = icmp slt i32 %95, %96
  br i1 %97, label %98, label %108

98:                                               ; preds = %94
  %99 = load ptr, ptr %4, align 8, !tbaa !3
  %100 = load ptr, ptr %8, align 8, !tbaa !71
  %101 = load i32, ptr %10, align 4, !tbaa !10
  %102 = sext i32 %101 to i64
  %103 = getelementptr inbounds ptr, ptr %100, i64 %102
  %104 = load ptr, ptr %103, align 8, !tbaa !8
  call void @Dch_ManResimulateOther_rec(ptr noundef %99, ptr noundef %104)
  br label %105

105:                                              ; preds = %98
  %106 = load i32, ptr %10, align 4, !tbaa !10
  %107 = add nsw i32 %106, 1
  store i32 %107, ptr %10, align 4, !tbaa !10
  br label %94, !llvm.loop !72

108:                                              ; preds = %94
  %109 = load ptr, ptr %4, align 8, !tbaa !3
  %110 = getelementptr inbounds nuw %struct.Dch_Man_t_, ptr %109, i32 0, i32 3
  %111 = load ptr, ptr %110, align 8, !tbaa !70
  %112 = load ptr, ptr %7, align 8, !tbaa !8
  %113 = call i32 @Dch_ClassesRefineOneClass(ptr noundef %111, ptr noundef %112, i32 noundef 0)
  %114 = load i32, ptr %13, align 4, !tbaa !10
  %115 = add nsw i32 %114, %113
  store i32 %115, ptr %13, align 4, !tbaa !10
  br label %116

116:                                              ; preds = %108
  %117 = load i32, ptr %9, align 4, !tbaa !10
  %118 = add nsw i32 %117, 1
  store i32 %118, ptr %9, align 4, !tbaa !10
  br label %73, !llvm.loop !73

119:                                              ; preds = %86
  %120 = load ptr, ptr %6, align 8, !tbaa !8
  %121 = call i32 @Aig_ObjIsConst1(ptr noundef %120)
  %122 = icmp ne i32 %121, 0
  br i1 %122, label %123, label %124

123:                                              ; preds = %119
  br label %125

124:                                              ; preds = %119
  br label %125

125:                                              ; preds = %124, %123
  %126 = call i64 @Abc_Clock()
  %127 = load i64, ptr %14, align 8, !tbaa !67
  %128 = sub nsw i64 %126, %127
  %129 = load ptr, ptr %4, align 8, !tbaa !3
  %130 = getelementptr inbounds nuw %struct.Dch_Man_t_, ptr %129, i32 0, i32 26
  %131 = load i64, ptr %130, align 8, !tbaa !74
  %132 = add nsw i64 %131, %128
  store i64 %132, ptr %130, align 8, !tbaa !74
  call void @llvm.lifetime.end.p0(i64 8, ptr %14) #7
  call void @llvm.lifetime.end.p0(i64 4, ptr %13) #7
  call void @llvm.lifetime.end.p0(i64 4, ptr %12) #7
  call void @llvm.lifetime.end.p0(i64 4, ptr %11) #7
  call void @llvm.lifetime.end.p0(i64 4, ptr %10) #7
  call void @llvm.lifetime.end.p0(i64 4, ptr %9) #7
  call void @llvm.lifetime.end.p0(i64 8, ptr %8) #7
  call void @llvm.lifetime.end.p0(i64 8, ptr %7) #7
  ret void
}