; Function Attrs: nounwind uwtable
define void @Dch_ManResimulateCex(ptr noundef %0, ptr noundef %1, ptr noundef %2) local_unnamed_addr #0 {
  %4 = alloca %struct.timespec, align 8
  %5 = alloca %struct.timespec, align 8
  %6 = alloca i32, align 4
  call void @llvm.lifetime.start.p0(i64 4, ptr nonnull %6) #11
  call void @llvm.lifetime.start.p0(i64 16, ptr nonnull %5) #11
  %7 = call i32 @clock_gettime(i32 noundef 1, ptr noundef nonnull %5) #11
  %8 = icmp slt i32 %7, 0
  br i1 %8, label %Abc_Clock.exit, label %9

9:                                                ; preds = %3
  %10 = load i64, ptr %5, align 8, !tbaa !62
  %.neg52 = mul i64 %10, -1000000
  %11 = getelementptr inbounds nuw i8, ptr %5, i64 8
  %12 = load i64, ptr %11, align 8, !tbaa !64
  %.neg = sdiv i64 %12, -1000
  %.neg53 = add i64 %.neg, %.neg52
  br label %Abc_Clock.exit

Abc_Clock.exit:                                   ; preds = %3, %9
  %.0.i.neg = phi i64 [ %.neg53, %9 ], [ 1, %3 ]
  call void @llvm.lifetime.end.p0(i64 16, ptr nonnull %5) #11
  call void @Dch_ManCollectTfoCands(ptr noundef %0, ptr noundef %1, ptr noundef %2)
  %13 = getelementptr inbounds nuw i8, ptr %0, i64 104
  store i32 0, ptr %13, align 8, !tbaa !61
  %14 = getelementptr inbounds nuw i8, ptr %0, i64 8
  %15 = load ptr, ptr %14, align 8, !tbaa !3
  call void @Aig_ManIncrementTravId(ptr noundef %15) #11
  %16 = load ptr, ptr %14, align 8, !tbaa !3
  %17 = getelementptr i8, ptr %16, i64 48
  %.val46 = load ptr, ptr %17, align 8, !tbaa !38
  %18 = getelementptr i8, ptr %16, i64 312
  %.val = load i32, ptr %18, align 8, !tbaa !17
  %19 = getelementptr inbounds nuw i8, ptr %.val46, i64 32
  store i32 %.val, ptr %19, align 8, !tbaa !26
  call void @Dch_ManResimulateSolved_rec(ptr noundef %0, ptr noundef %1)
  call void @Dch_ManResimulateSolved_rec(ptr noundef %0, ptr noundef %2)
  %20 = getelementptr inbounds nuw i8, ptr %0, i64 108
  %21 = load i32, ptr %20, align 4, !tbaa !65
  %22 = load i32, ptr %13, align 8, !tbaa !61
  %23 = call noundef i32 @llvm.smax.i32(i32 %21, i32 %22)
  store i32 %23, ptr %20, align 4, !tbaa !65
  %24 = getelementptr inbounds nuw i8, ptr %0, i64 88
  %25 = load ptr, ptr %24, align 8, !tbaa !39
  %26 = getelementptr i8, ptr %25, i64 4
  %.val4854 = load i32, ptr %26, align 4, !tbaa !40
  %27 = icmp sgt i32 %.val4854, 0
  br i1 %27, label %.lr.ph, label %.critedge

.lr.ph:                                           ; preds = %Abc_Clock.exit, %.lr.ph
  %indvars.iv = phi i64 [ %indvars.iv.next, %.lr.ph ], [ 0, %Abc_Clock.exit ]
  %28 = phi ptr [ %32, %.lr.ph ], [ %25, %Abc_Clock.exit ]
  %29 = getelementptr i8, ptr %28, i64 8
  %.val45 = load ptr, ptr %29, align 8, !tbaa !31
  %30 = getelementptr inbounds nuw ptr, ptr %.val45, i64 %indvars.iv
  %31 = load ptr, ptr %30, align 8, !tbaa !33
  call void @Dch_ManResimulateOther_rec(ptr noundef nonnull %0, ptr noundef %31)
  %indvars.iv.next = add nuw nsw i64 %indvars.iv, 1
  %32 = load ptr, ptr %24, align 8, !tbaa !39
  %33 = getelementptr i8, ptr %32, i64 4
  %.val48 = load i32, ptr %33, align 4, !tbaa !40
  %34 = sext i32 %.val48 to i64
  %35 = icmp slt i64 %indvars.iv.next, %34
  br i1 %35, label %.lr.ph, label %.critedge, !llvm.loop !66

.critedge:                                        ; preds = %.lr.ph, %Abc_Clock.exit
  %.lcssa = phi ptr [ %25, %Abc_Clock.exit ], [ %32, %.lr.ph ]
  %36 = getelementptr inbounds nuw i8, ptr %0, i64 24
  %37 = load ptr, ptr %36, align 8, !tbaa !67
  %38 = call i32 @Dch_ClassesRefineConst1Group(ptr noundef %37, ptr noundef nonnull %.lcssa, i32 noundef 0) #11
  %39 = getelementptr inbounds nuw i8, ptr %0, i64 96
  %40 = load ptr, ptr %39, align 8, !tbaa !42
  %41 = getelementptr i8, ptr %40, i64 4
  %.val4758 = load i32, ptr %41, align 4, !tbaa !40
  %42 = icmp sgt i32 %.val4758, 0
  br i1 %42, label %.lr.ph60, label %.critedge2

.lr.ph60:                                         ; preds = %.critedge, %._crit_edge
  %indvars.iv66 = phi i64 [ %indvars.iv.next67, %._crit_edge ], [ 0, %.critedge ]
  %43 = phi ptr [ %58, %._crit_edge ], [ %40, %.critedge ]
  %44 = getelementptr i8, ptr %43, i64 8
  %.val44 = load ptr, ptr %44, align 8, !tbaa !31
  %45 = getelementptr inbounds nuw ptr, ptr %.val44, i64 %indvars.iv66
  %46 = load ptr, ptr %45, align 8, !tbaa !33
  %47 = load ptr, ptr %36, align 8, !tbaa !67
  %48 = call ptr @Dch_ClassesReadClass(ptr noundef %47, ptr noundef %46, ptr noundef nonnull %6) #11
  %49 = load i32, ptr %6, align 4, !tbaa !29
  %50 = icmp sgt i32 %49, 0
  br i1 %50, label %.lr.ph57, label %._crit_edge

.lr.ph57:                                         ; preds = %.lr.ph60, %.lr.ph57
  %indvars.iv63 = phi i64 [ %indvars.iv.next64, %.lr.ph57 ], [ 0, %.lr.ph60 ]
  %51 = getelementptr inbounds nuw ptr, ptr %48, i64 %indvars.iv63
  %52 = load ptr, ptr %51, align 8, !tbaa !37
  call void @Dch_ManResimulateOther_rec(ptr noundef %0, ptr noundef %52)
  %indvars.iv.next64 = add nuw nsw i64 %indvars.iv63, 1
  %53 = load i32, ptr %6, align 4, !tbaa !29
  %54 = sext i32 %53 to i64
  %55 = icmp slt i64 %indvars.iv.next64, %54
  br i1 %55, label %.lr.ph57, label %._crit_edge, !llvm.loop !68

._crit_edge:                                      ; preds = %.lr.ph57, %.lr.ph60
  %56 = load ptr, ptr %36, align 8, !tbaa !67
  %57 = call i32 @Dch_ClassesRefineOneClass(ptr noundef %56, ptr noundef %46, i32 noundef 0) #11
  %indvars.iv.next67 = add nuw nsw i64 %indvars.iv66, 1
  %58 = load ptr, ptr %39, align 8, !tbaa !42
  %59 = getelementptr i8, ptr %58, i64 4
  %.val47 = load i32, ptr %59, align 4, !tbaa !40
  %60 = sext i32 %.val47 to i64
  %61 = icmp slt i64 %indvars.iv.next67, %60
  br i1 %61, label %.lr.ph60, label %.critedge2, !llvm.loop !69

.critedge2:                                       ; preds = %._crit_edge, %.critedge
  call void @llvm.lifetime.start.p0(i64 16, ptr nonnull %4) #11
  %62 = call i32 @clock_gettime(i32 noundef 1, ptr noundef nonnull %4) #11
  %63 = icmp slt i32 %62, 0
  br i1 %63, label %Abc_Clock.exit51, label %64

64:                                               ; preds = %.critedge2
  %65 = load i64, ptr %4, align 8, !tbaa !62
  %66 = mul nsw i64 %65, 1000000
  %67 = getelementptr inbounds nuw i8, ptr %4, i64 8
  %68 = load i64, ptr %67, align 8, !tbaa !64
  %69 = sdiv i64 %68, 1000
  %70 = add nsw i64 %69, %66
  br label %Abc_Clock.exit51

Abc_Clock.exit51:                                 ; preds = %.critedge2, %64
  %.0.i50 = phi i64 [ %70, %64 ], [ -1, %.critedge2 ]
  call void @llvm.lifetime.end.p0(i64 16, ptr nonnull %4) #11
  %71 = add i64 %.0.i50, %.0.i.neg
  %72 = getelementptr inbounds nuw i8, ptr %0, i64 160
  %73 = load i64, ptr %72, align 8, !tbaa !70
  %74 = add nsw i64 %71, %73
  store i64 %74, ptr %72, align 8, !tbaa !70
  call void @llvm.lifetime.end.p0(i64 4, ptr nonnull %6) #11
  ret void
}